target datalayout = "e-m:e-p270:32:32-p271:32:32-p272:64:64-i64:64-i128:128-f80:128-n8:16:32:64-S128"
target triple = "x86_64-unknown-linux-gnu"

%struct.PlatformBusDevice = type { %struct.SysBusDevice, i32, %struct.MemoryRegion, i32, ptr, ptr }
%struct.SysBusDevice = type { %struct.DeviceState, i32, [32 x %struct.anon], i32, [32 x i32] }
%struct.DeviceState = type { %struct.Object, ptr, ptr, i8, i8, i64, ptr, i32, i8, ptr, %struct.NamedGPIOListHead, %struct.NamedClockListHead, %struct.BusStateHead, i32, i32, i32, %struct.ResettableState, ptr, %struct.MemReentrancyGuard }
%struct.Object = type { ptr, ptr, ptr, i32, ptr }
%struct.NamedGPIOListHead = type { ptr }
%struct.NamedClockListHead = type { ptr }
%struct.BusStateHead = type { ptr }
%struct.ResettableState = type { i32, i8, i8 }
%struct.MemReentrancyGuard = type { i8 }
%struct.anon = type { i64, ptr }
%struct.MemoryRegion = type { %struct.Object, i8, i8, i8, i8, i8, i8, i8, i8, i8, i8, ptr, ptr, ptr, ptr, ptr, ptr, i32, i128, i64, ptr, i64, i8, i8, i8, i8, i8, ptr, i64, i32, %union.anon, %union.anon.0, %union.anon.1, ptr, i32, ptr, ptr, i8 }
%union.anon = type { %struct.QTailQLink }
%struct.QTailQLink = type { ptr, ptr }
%union.anon.0 = type { %struct.QTailQLink }
%union.anon.1 = type { %struct.QTailQLink }

@.str = private unnamed_addr constant [10 x i8] c"container\00", align 1
@error_abort = external global ptr, align 8
@.str.1 = private unnamed_addr constant [5 x i8] c"addr\00", align 1

; Function Attrs: nounwind sspstrong uwtable
define dso_local i64 @platform_bus_get_mmio_addr(ptr noundef %pbus, ptr noundef %sbdev, i32 noundef %n) #0 {
entry:
  %retval = alloca i64, align 8
  %pbus.addr = alloca ptr, align 8
  %sbdev.addr = alloca ptr, align 8
  %n.addr = alloca i32, align 4
  %pbus_mr = alloca ptr, align 8
  %sbdev_mr = alloca ptr, align 8
  %pbus_mr_obj = alloca ptr, align 8
  %parent_mr = alloca ptr, align 8
  store ptr %pbus, ptr %pbus.addr, align 8
  store ptr %sbdev, ptr %sbdev.addr, align 8
  store i32 %n, ptr %n.addr, align 4
  %0 = load ptr, ptr %pbus.addr, align 8
  %mmio = getelementptr inbounds %struct.PlatformBusDevice, ptr %0, i32 0, i32 2
  store ptr %mmio, ptr %pbus_mr, align 8
  %1 = load ptr, ptr %sbdev.addr, align 8
  %2 = load i32, ptr %n.addr, align 4
  %call = call ptr @sysbus_mmio_get_region(ptr noundef %1, i32 noundef %2)
  store ptr %call, ptr %sbdev_mr, align 8
  %3 = load ptr, ptr %pbus_mr, align 8
  store ptr %3, ptr %pbus_mr_obj, align 8
  %4 = load ptr, ptr %sbdev_mr, align 8
  %call1 = call zeroext i1 @memory_region_is_mapped(ptr noundef %4)
  br i1 %call1, label %if.end, label %if.then

if.then:                                          ; preds = %entry
  store i64 -1, ptr %retval, align 8
  br label %return

if.end:                                           ; preds = %entry
  %5 = load ptr, ptr %sbdev_mr, align 8
  %call2 = call ptr @object_property_get_link(ptr noundef %5, ptr noundef @.str, ptr noundef @error_abort)
  store ptr %call2, ptr %parent_mr, align 8
  %6 = load ptr, ptr %parent_mr, align 8
  %7 = load ptr, ptr %pbus_mr_obj, align 8
  %cmp = icmp ne ptr %6, %7
  br i1 %cmp, label %if.then3, label %if.end4

if.then3:                                         ; preds = %if.end
  store i64 -1, ptr %retval, align 8
  br label %return

if.end4:                                          ; preds = %if.end
  %8 = load ptr, ptr %sbdev_mr, align 8
  %call5 = call i64 @object_property_get_uint(ptr noundef %8, ptr noundef @.str.1, ptr noundef null)
  store i64 %call5, ptr %retval, align 8
  br label %return

return:                                           ; preds = %if.end4, %if.then3, %if.then
  %9 = load i64, ptr %retval, align 8
  ret i64 %9
}