; Function Attrs: nounwind sspstrong uwtable
define dso_local i64 @platform_bus_get_mmio_addr(ptr noundef readnone %pbus, ptr noundef %sbdev, i32 noundef %n) local_unnamed_addr #0 {
entry:
  %call = tail call ptr @sysbus_mmio_get_region(ptr noundef %sbdev, i32 noundef %n) #9
  %call1 = tail call zeroext i1 @memory_region_is_mapped(ptr noundef %call) #9
  br i1 %call1, label %if.end, label %return

if.end:                                           ; preds = %entry
  %mmio = getelementptr inbounds nuw i8, ptr %pbus, i64 832
  %call2 = tail call ptr @object_property_get_link(ptr noundef %call, ptr noundef nonnull @.str, ptr noundef nonnull @error_abort) #9
  %cmp.not = icmp eq ptr %call2, %mmio
  br i1 %cmp.not, label %if.end4, label %return

if.end4:                                          ; preds = %if.end
  %call5 = tail call i64 @object_property_get_uint(ptr noundef %call, ptr noundef nonnull @.str.1, ptr noundef null) #9
  br label %return

return:                                           ; preds = %if.end, %entry, %if.end4
  %retval.0 = phi i64 [ %call5, %if.end4 ], [ -1, %entry ], [ -1, %if.end ]
  ret i64 %retval.0
}